target datalayout = "e-m:e-p270:32:32-p271:32:32-p272:64:64-i64:64-i128:128-f80:128-n8:16:32:64-S128"
target triple = "x86_64-unknown-linux-gnu"

%struct.QemuTextConsole = type { %struct.QemuConsole, i32, i32, i32, i32, i32, i32, i32, i32, ptr, [2 x i32], [2 x i32], i32, i32, i32, i32, i32, i32, ptr, %struct.Fifo8 }
%struct.QemuConsole = type { %struct.Object, i32, ptr, ptr, %struct.DisplayScanout, i32, ptr, i32, ptr, i32, %struct.QemuUIInfo, ptr, ptr, ptr, %struct.CoQueue, %union.anon.0 }
%struct.Object = type { ptr, ptr, ptr, i32, ptr }
%struct.DisplayScanout = type { i32, %union.anon }
%union.anon = type { %struct.ScanoutTexture }
%struct.ScanoutTexture = type { i32, i8, i32, i32, i32, i32, i32, i32, ptr }
%struct.QemuUIInfo = type { i16, i16, i32, i32, i32, i32, i32 }
%struct.CoQueue = type { %struct.anon }
%struct.anon = type { ptr, ptr }
%union.anon.0 = type { %struct.QTailQLink }
%struct.QTailQLink = type { ptr, ptr }
%struct.Fifo8 = type { ptr, i32, i32, i32 }
%struct.Chardev = type { %struct.Object, %struct.QemuMutex, ptr, ptr, ptr, i32, i32, i8, ptr, ptr, [1 x i64] }
%struct.QemuMutex = type { %union.pthread_mutex_t, i8 }
%union.pthread_mutex_t = type { %struct.__pthread_mutex_s }
%struct.__pthread_mutex_s = type { i32, i32, i32, i32, i32, i16, i16, %struct.__pthread_internal_list }
%struct.__pthread_internal_list = type { ptr, ptr }
%struct.TextAttributes = type { i16 }
%struct.VCChardev = type { %struct.Chardev, ptr, i32, [3 x i32], i32, %struct.TextAttributes, i32, i32 }

@.str.1 = private unnamed_addr constant [11 x i8] c"chardev-vc\00", align 1
@.str.7 = private unnamed_addr constant [24 x i8] c"../qemu/ui/console-vc.c\00", align 1
@__func__.VC_CHARDEV = private unnamed_addr constant [11 x i8] c"VC_CHARDEV\00", align 1

; Function Attrs: nounwind sspstrong uwtable
define internal void @kbd_send_chars(ptr noundef %s) #0 {
entry:
  %s.addr = alloca ptr, align 8
  %len = alloca i32, align 4
  %avail = alloca i32, align 4
  %buf = alloca ptr, align 8
  %size = alloca i32, align 4
  %_a0 = alloca i32, align 4
  %_b1 = alloca i32, align 4
  %tmp = alloca i32, align 4
  store ptr %s, ptr %s.addr, align 8
  %0 = load ptr, ptr %s.addr, align 8
  %chr = getelementptr inbounds %struct.QemuTextConsole, ptr %0, i32 0, i32 18
  %1 = load ptr, ptr %chr, align 8
  %call = call i32 @qemu_chr_be_can_write(ptr noundef %1)
  store i32 %call, ptr %len, align 4
  %2 = load ptr, ptr %s.addr, align 8
  %out_fifo = getelementptr inbounds %struct.QemuTextConsole, ptr %2, i32 0, i32 19
  %call1 = call i32 @fifo8_num_used(ptr noundef %out_fifo)
  store i32 %call1, ptr %avail, align 4
  br label %while.cond

while.cond:                                       ; preds = %cond.end, %entry
  %3 = load i32, ptr %len, align 4
  %cmp = icmp ugt i32 %3, 0
  br i1 %cmp, label %land.rhs, label %land.end

land.rhs:                                         ; preds = %while.cond
  %4 = load i32, ptr %avail, align 4
  %cmp2 = icmp ugt i32 %4, 0
  br label %land.end

land.end:                                         ; preds = %land.rhs, %while.cond
  %5 = phi i1 [ false, %while.cond ], [ %cmp2, %land.rhs ]
  br i1 %5, label %while.body, label %while.end

while.body:                                       ; preds = %land.end
  %6 = load ptr, ptr %s.addr, align 8
  %out_fifo3 = getelementptr inbounds %struct.QemuTextConsole, ptr %6, i32 0, i32 19
  %7 = load i32, ptr %len, align 4
  store i32 %7, ptr %_a0, align 4
  %8 = load i32, ptr %avail, align 4
  store i32 %8, ptr %_b1, align 4
  %9 = load i32, ptr %_a0, align 4
  %10 = load i32, ptr %_b1, align 4
  %cmp4 = icmp ult i32 %9, %10
  br i1 %cmp4, label %cond.true, label %cond.false

cond.true:                                        ; preds = %while.body
  %11 = load i32, ptr %_a0, align 4
  br label %cond.end

cond.false:                                       ; preds = %while.body
  %12 = load i32, ptr %_b1, align 4
  br label %cond.end

cond.end:                                         ; preds = %cond.false, %cond.true
  %cond = phi i32 [ %11, %cond.true ], [ %12, %cond.false ]
  store i32 %cond, ptr %tmp, align 4
  %13 = load i32, ptr %tmp, align 4
  %call5 = call ptr @fifo8_pop_buf(ptr noundef %out_fifo3, i32 noundef %13, ptr noundef %size)
  store ptr %call5, ptr %buf, align 8
  %14 = load ptr, ptr %s.addr, align 8
  %chr6 = getelementptr inbounds %struct.QemuTextConsole, ptr %14, i32 0, i32 18
  %15 = load ptr, ptr %chr6, align 8
  %16 = load ptr, ptr %buf, align 8
  %17 = load i32, ptr %size, align 4
  call void @qemu_chr_be_write(ptr noundef %15, ptr noundef %16, i32 noundef %17)
  %18 = load ptr, ptr %s.addr, align 8
  %chr7 = getelementptr inbounds %struct.QemuTextConsole, ptr %18, i32 0, i32 18
  %19 = load ptr, ptr %chr7, align 8
  %call8 = call i32 @qemu_chr_be_can_write(ptr noundef %19)
  store i32 %call8, ptr %len, align 4
  %20 = load i32, ptr %size, align 4
  %21 = load i32, ptr %avail, align 4
  %sub = sub i32 %21, %20
  store i32 %sub, ptr %avail, align 4
  br label %while.cond, !llvm.loop !8

while.end:                                        ; preds = %land.end
  ret void
}

; Function Attrs: nounwind sspstrong uwtable
define internal ptr @VC_CHARDEV(ptr noundef %obj) #0 {
entry:
  %obj.addr = alloca ptr, align 8
  store ptr %obj, ptr %obj.addr, align 8
  %0 = load ptr, ptr %obj.addr, align 8
  %call = call ptr @object_dynamic_cast_assert(ptr noundef %0, ptr noundef @.str.1, ptr noundef @.str.7, i32 noundef 852, ptr noundef @__func__.VC_CHARDEV)
  ret ptr %call
}

; Function Attrs: nounwind sspstrong uwtable
define internal void @vc_chr_accept_input(ptr noundef %chr) #0 {
entry:
  %chr.addr = alloca ptr, align 8
  %drv = alloca ptr, align 8
  store ptr %chr, ptr %chr.addr, align 8
  %0 = load ptr, ptr %chr.addr, align 8
  %call = call ptr @VC_CHARDEV(ptr noundef %0)
  store ptr %call, ptr %drv, align 8
  %1 = load ptr, ptr %drv, align 8
  %console = getelementptr inbounds %struct.VCChardev, ptr %1, i32 0, i32 1
  %2 = load ptr, ptr %console, align 8
  call void @kbd_send_chars(ptr noundef %2)
  ret void
}