; Function Attrs: nounwind sspstrong uwtable
define internal void @vc_chr_accept_input(ptr noundef %chr) #0 {
entry:
  %size.i = alloca i32, align 4
  %call.i = tail call ptr @object_dynamic_cast_assert(ptr noundef %chr, ptr noundef nonnull @.str.1, ptr noundef nonnull @.str.7, i32 noundef 852, ptr noundef nonnull @__func__.VC_CHARDEV) #12
  %console = getelementptr inbounds nuw i8, ptr %call.i, i64 152
  %0 = load ptr, ptr %console, align 8
  call void @llvm.lifetime.start.p0(i64 4, ptr nonnull %size.i)
  %chr.i = getelementptr inbounds nuw i8, ptr %0, i64 312
  %1 = load ptr, ptr %chr.i, align 8
  %call.i1 = tail call i32 @qemu_chr_be_can_write(ptr noundef %1) #12
  %out_fifo.i = getelementptr inbounds nuw i8, ptr %0, i64 320
  %call1.i = tail call i32 @fifo8_num_used(ptr noundef nonnull %out_fifo.i) #12
  %cmp10.i = icmp ne i32 %call.i1, 0
  %cmp211.i = icmp ne i32 %call1.i, 0
  %2 = select i1 %cmp10.i, i1 %cmp211.i, i1 false
  br i1 %2, label %while.body.i, label %kbd_send_chars.exit

while.body.i:                                     ; preds = %entry, %while.body.i
  %len.013.i = phi i32 [ %call8.i, %while.body.i ], [ %call.i1, %entry ]
  %avail.012.i = phi i32 [ %sub.i, %while.body.i ], [ %call1.i, %entry ]
  %cond.i = call i32 @llvm.umin.i32(i32 %len.013.i, i32 %avail.012.i)
  %call5.i = call ptr @fifo8_pop_buf(ptr noundef nonnull %out_fifo.i, i32 noundef %cond.i, ptr noundef nonnull %size.i) #12
  %3 = load ptr, ptr %chr.i, align 8
  %4 = load i32, ptr %size.i, align 4
  call void @qemu_chr_be_write(ptr noundef %3, ptr noundef %call5.i, i32 noundef %4) #12
  %5 = load ptr, ptr %chr.i, align 8
  %call8.i = call i32 @qemu_chr_be_can_write(ptr noundef %5) #12
  %6 = load i32, ptr %size.i, align 4
  %sub.i = sub i32 %avail.012.i, %6
  %cmp.i = icmp ne i32 %call8.i, 0
  %cmp2.i = icmp ne i32 %sub.i, 0
  %7 = select i1 %cmp.i, i1 %cmp2.i, i1 false
  br i1 %7, label %while.body.i, label %kbd_send_chars.exit, !llvm.loop !8

kbd_send_chars.exit:                              ; preds = %while.body.i, %entry
  call void @llvm.lifetime.end.p0(i64 4, ptr nonnull %size.i)
  ret void
}